target datalayout = "e-m:e-p270:32:32-p271:32:32-p272:64:64-i64:64-i128:128-f80:128-n8:16:32:64-S128"
target triple = "x86_64-pc-linux-gnu"

%struct.crypto_ex_data_st = type { ptr }
%struct.ssl_st = type { i32, i16, i16, ptr, ptr, ptr, ptr, ptr, i32, i32, ptr, ptr, i32, i32, ptr, ptr, ptr, ptr, ptr, ptr, ptr, ptr, i32, i32, [32 x i8], ptr, ptr, ptr, ptr, ptr, ptr, ptr, i64, %struct.crypto_ex_data_st, ptr, i32, i32, i32, i32, i16, ptr, i32, i64, ptr, ptr, ptr, ptr, ptr, ptr, i32, i32, ptr, ptr, i8, i8, i32 }
%struct.ssl3_state_st = type { [8 x i8], [8 x i8], [32 x i8], [32 x i8], i8, i8, %struct.ssl3_buffer_st, %struct.ssl3_buffer_st, %struct.ssl3_record_st, i8, i32, i32, i32, i32, ptr, ptr, %struct.env_md_ctx_st, %struct.env_md_ctx_st, i8, i32, [2 x i8], i32, i8, i8, ptr, ptr, ptr, %struct.anon, [64 x i8], i8, [64 x i8], i8, i32, i32, ptr, i64, ptr, i64, i8, [64 x i8] }
%struct.ssl3_buffer_st = type { ptr, i16, i16, i16 }
%struct.ssl3_record_st = type { i8, i16, ptr }
%struct.env_md_ctx_st = type { ptr, ptr, ptr, ptr }
%struct.anon = type { [64 x i8], i32, [64 x i8], i32, i64, i32, ptr, i32, i32, %union.anon, %union.anon.0, i8, i32, ptr, ptr, i64, ptr, i8, i8, i8, i8, i32, i8, ptr, i64, i8, ptr, i8, i8, i8, %struct.ssl_ecdh_ctx_st, ptr, i16 }
%union.anon = type { i32 }
%union.anon.0 = type { i16 }
%struct.ssl_ecdh_ctx_st = type { ptr, ptr }

; Function Attrs: nounwind uwtable
define hidden ptr @SSL_get_wbio(ptr noundef %0) #0 {
  %2 = alloca ptr, align 8
  store ptr %0, ptr %2, align 8, !tbaa !80
  %3 = load ptr, ptr %2, align 8, !tbaa !80
  %4 = getelementptr inbounds nuw %struct.ssl_st, ptr %3, i32 0, i32 5
  %5 = load ptr, ptr %4, align 8, !tbaa !128
  ret ptr %5
}

; Function Attrs: nounwind uwtable
define hidden ptr @SSL_get_rbio(ptr noundef %0) #0 {
  %2 = alloca ptr, align 8
  store ptr %0, ptr %2, align 8, !tbaa !80
  %3 = load ptr, ptr %2, align 8, !tbaa !80
  %4 = getelementptr inbounds nuw %struct.ssl_st, ptr %3, i32 0, i32 4
  %5 = load ptr, ptr %4, align 8, !tbaa !129
  ret ptr %5
}

; Function Attrs: nounwind uwtable
define hidden i32 @SSL_want(ptr noundef %0) #0 {
  %2 = alloca ptr, align 8
  store ptr %0, ptr %2, align 8, !tbaa !80
  %3 = load ptr, ptr %2, align 8, !tbaa !80
  %4 = getelementptr inbounds nuw %struct.ssl_st, ptr %3, i32 0, i32 22
  %5 = load i32, ptr %4, align 8, !tbaa !120
  ret i32 %5
}

; Function Attrs: nounwind uwtable
define hidden i32 @SSL_get_error(ptr noundef %0, i32 noundef %1) #0 {
  %3 = alloca i32, align 4
  %4 = alloca ptr, align 8
  %5 = alloca i32, align 4
  %6 = alloca i32, align 4
  %7 = alloca i32, align 4
  %8 = alloca ptr, align 8
  %9 = alloca i32, align 4
  store ptr %0, ptr %4, align 8, !tbaa !80
  store i32 %1, ptr %5, align 4, !tbaa !61
  call void @llvm.lifetime.start.p0(i64 4, ptr %6) #8
  call void @llvm.lifetime.start.p0(i64 4, ptr %7) #8
  call void @llvm.lifetime.start.p0(i64 8, ptr %8) #8
  %10 = load i32, ptr %5, align 4, !tbaa !61
  %11 = icmp sgt i32 %10, 0
  br i1 %11, label %12, label %13

12:                                               ; preds = %2
  store i32 0, ptr %3, align 4
  store i32 1, ptr %9, align 4
  br label %133

13:                                               ; preds = %2
  %14 = call i32 @ERR_peek_error()
  store i32 %14, ptr %7, align 4, !tbaa !61
  %15 = load i32, ptr %7, align 4, !tbaa !61
  %16 = icmp ne i32 %15, 0
  br i1 %16, label %17, label %24

17:                                               ; preds = %13
  %18 = load i32, ptr %7, align 4, !tbaa !61
  %19 = lshr i32 %18, 24
  %20 = and i32 %19, 255
  %21 = icmp eq i32 %20, 2
  br i1 %21, label %22, label %23

22:                                               ; preds = %17
  store i32 5, ptr %3, align 4
  store i32 1, ptr %9, align 4
  br label %133

23:                                               ; preds = %17
  store i32 1, ptr %3, align 4
  store i32 1, ptr %9, align 4
  br label %133

24:                                               ; preds = %13
  %25 = load i32, ptr %5, align 4, !tbaa !61
  %26 = icmp eq i32 %25, 0
  br i1 %26, label %27, label %43

27:                                               ; preds = %24
  %28 = load ptr, ptr %4, align 8, !tbaa !80
  %29 = getelementptr inbounds nuw %struct.ssl_st, ptr %28, i32 0, i32 8
  %30 = load i32, ptr %29, align 8, !tbaa !138
  %31 = and i32 %30, 2
  %32 = icmp ne i32 %31, 0
  br i1 %32, label %33, label %42

33:                                               ; preds = %27
  %34 = load ptr, ptr %4, align 8, !tbaa !80
  %35 = getelementptr inbounds nuw %struct.ssl_st, ptr %34, i32 0, i32 14
  %36 = load ptr, ptr %35, align 8, !tbaa !152
  %37 = getelementptr inbounds nuw %struct.ssl3_state_st, ptr %36, i32 0, i32 18
  %38 = load i8, ptr %37, align 8, !tbaa !169
  %39 = sext i8 %38 to i32
  %40 = icmp ne i32 %39, 0
  br i1 %40, label %41, label %42

41:                                               ; preds = %33
  store i32 6, ptr %3, align 4
  store i32 1, ptr %9, align 4
  br label %133

42:                                               ; preds = %33, %27
  store i32 5, ptr %3, align 4
  store i32 1, ptr %9, align 4
  br label %133

43:                                               ; preds = %24
  %44 = load ptr, ptr %4, align 8, !tbaa !80
  %45 = call i32 @SSL_want(ptr noundef %44)
  %46 = icmp eq i32 %45, 7
  br i1 %46, label %47, label %48

47:                                               ; preds = %43
  store i32 11, ptr %3, align 4
  store i32 1, ptr %9, align 4
  br label %133

48:                                               ; preds = %43
  %49 = load ptr, ptr %4, align 8, !tbaa !80
  %50 = call i32 @SSL_want(ptr noundef %49)
  %51 = icmp eq i32 %50, 8
  br i1 %51, label %52, label %53

52:                                               ; preds = %48
  store i32 12, ptr %3, align 4
  store i32 1, ptr %9, align 4
  br label %133

53:                                               ; preds = %48
  %54 = load ptr, ptr %4, align 8, !tbaa !80
  %55 = call i32 @SSL_want(ptr noundef %54)
  %56 = icmp eq i32 %55, 3
  br i1 %56, label %57, label %85

57:                                               ; preds = %53
  %58 = load ptr, ptr %4, align 8, !tbaa !80
  %59 = call ptr @SSL_get_rbio(ptr noundef %58)
  store ptr %59, ptr %8, align 8, !tbaa !143
  %60 = load ptr, ptr %8, align 8, !tbaa !143
  %61 = call i32 @BIO_should_read(ptr noundef %60)
  %62 = icmp ne i32 %61, 0
  br i1 %62, label %63, label %64

63:                                               ; preds = %57
  store i32 2, ptr %3, align 4
  store i32 1, ptr %9, align 4
  br label %133

64:                                               ; preds = %57
  %65 = load ptr, ptr %8, align 8, !tbaa !143
  %66 = call i32 @BIO_should_write(ptr noundef %65)
  %67 = icmp ne i32 %66, 0
  br i1 %67, label %68, label %69

68:                                               ; preds = %64
  store i32 3, ptr %3, align 4
  store i32 1, ptr %9, align 4
  br label %133

69:                                               ; preds = %64
  %70 = load ptr, ptr %8, align 8, !tbaa !143
  %71 = call i32 @BIO_should_io_special(ptr noundef %70)
  %72 = icmp ne i32 %71, 0
  br i1 %72, label %73, label %84

73:                                               ; preds = %69
  %74 = load ptr, ptr %8, align 8, !tbaa !143
  %75 = call i32 @BIO_get_retry_reason(ptr noundef %74)
  store i32 %75, ptr %6, align 4, !tbaa !61
  %76 = load i32, ptr %6, align 4, !tbaa !61
  %77 = icmp eq i32 %76, 2
  br i1 %77, label %78, label %79

78:                                               ; preds = %73
  store i32 7, ptr %3, align 4
  store i32 1, ptr %9, align 4
  br label %133

79:                                               ; preds = %73
  %80 = load i32, ptr %6, align 4, !tbaa !61
  %81 = icmp eq i32 %80, 3
  br i1 %81, label %82, label %83

82:                                               ; preds = %79
  store i32 8, ptr %3, align 4
  store i32 1, ptr %9, align 4
  br label %133

83:                                               ; preds = %79
  store i32 5, ptr %3, align 4
  store i32 1, ptr %9, align 4
  br label %133

84:                                               ; preds = %69
  br label %85

85:                                               ; preds = %84, %53
  %86 = load ptr, ptr %4, align 8, !tbaa !80
  %87 = call i32 @SSL_want(ptr noundef %86)
  %88 = icmp eq i32 %87, 2
  br i1 %88, label %89, label %117

89:                                               ; preds = %85
  %90 = load ptr, ptr %4, align 8, !tbaa !80
  %91 = call ptr @SSL_get_wbio(ptr noundef %90)
  store ptr %91, ptr %8, align 8, !tbaa !143
  %92 = load ptr, ptr %8, align 8, !tbaa !143
  %93 = call i32 @BIO_should_write(ptr noundef %92)
  %94 = icmp ne i32 %93, 0
  br i1 %94, label %95, label %96

95:                                               ; preds = %89
  store i32 3, ptr %3, align 4
  store i32 1, ptr %9, align 4
  br label %133

96:                                               ; preds = %89
  %97 = load ptr, ptr %8, align 8, !tbaa !143
  %98 = call i32 @BIO_should_read(ptr noundef %97)
  %99 = icmp ne i32 %98, 0
  br i1 %99, label %100, label %101

100:                                              ; preds = %96
  store i32 2, ptr %3, align 4
  store i32 1, ptr %9, align 4
  br label %133

101:                                              ; preds = %96
  %102 = load ptr, ptr %8, align 8, !tbaa !143
  %103 = call i32 @BIO_should_io_special(ptr noundef %102)
  %104 = icmp ne i32 %103, 0
  br i1 %104, label %105, label %116

105:                                              ; preds = %101
  %106 = load ptr, ptr %8, align 8, !tbaa !143
  %107 = call i32 @BIO_get_retry_reason(ptr noundef %106)
  store i32 %107, ptr %6, align 4, !tbaa !61
  %108 = load i32, ptr %6, align 4, !tbaa !61
  %109 = icmp eq i32 %108, 2
  br i1 %109, label %110, label %111

110:                                              ; preds = %105
  store i32 7, ptr %3, align 4
  store i32 1, ptr %9, align 4
  br label %133

111:                                              ; preds = %105
  %112 = load i32, ptr %6, align 4, !tbaa !61
  %113 = icmp eq i32 %112, 3
  br i1 %113, label %114, label %115

114:                                              ; preds = %111
  store i32 8, ptr %3, align 4
  store i32 1, ptr %9, align 4
  br label %133

115:                                              ; preds = %111
  store i32 5, ptr %3, align 4
  store i32 1, ptr %9, align 4
  br label %133

116:                                              ; preds = %101
  br label %117

117:                                              ; preds = %116, %85
  %118 = load ptr, ptr %4, align 8, !tbaa !80
  %119 = call i32 @SSL_want(ptr noundef %118)
  %120 = icmp eq i32 %119, 4
  br i1 %120, label %121, label %122

121:                                              ; preds = %117
  store i32 4, ptr %3, align 4
  store i32 1, ptr %9, align 4
  br label %133

122:                                              ; preds = %117
  %123 = load ptr, ptr %4, align 8, !tbaa !80
  %124 = call i32 @SSL_want(ptr noundef %123)
  %125 = icmp eq i32 %124, 5
  br i1 %125, label %126, label %127

126:                                              ; preds = %122
  store i32 9, ptr %3, align 4
  store i32 1, ptr %9, align 4
  br label %133

127:                                              ; preds = %122
  %128 = load ptr, ptr %4, align 8, !tbaa !80
  %129 = call i32 @SSL_want(ptr noundef %128)
  %130 = icmp eq i32 %129, 9
  br i1 %130, label %131, label %132

131:                                              ; preds = %127
  store i32 13, ptr %3, align 4
  store i32 1, ptr %9, align 4
  br label %133

132:                                              ; preds = %127
  store i32 5, ptr %3, align 4
  store i32 1, ptr %9, align 4
  br label %133

133:                                              ; preds = %132, %131, %126, %121, %115, %114, %110, %100, %95, %83, %82, %78, %68, %63, %52, %47, %42, %41, %23, %22, %12
  call void @llvm.lifetime.end.p0(i64 8, ptr %8) #8
  call void @llvm.lifetime.end.p0(i64 4, ptr %7) #8
  call void @llvm.lifetime.end.p0(i64 4, ptr %6) #8
  %134 = load i32, ptr %3, align 4
  ret i32 %134
}