; Function Attrs: nounwind uwtable
define hidden range(i32 0, 14) i32 @SSL_get_error(ptr noundef readonly captures(none) %0, i32 noundef %1) local_unnamed_addr #0 {
  %3 = icmp sgt i32 %1, 0
  br i1 %3, label %50, label %4

4:                                                ; preds = %2
  %5 = tail call i32 @ERR_peek_error() #21
  %.not = icmp eq i32 %5, 0
  br i1 %.not, label %8, label %6

6:                                                ; preds = %4
  %.mask = and i32 %5, -16777216
  %7 = icmp eq i32 %.mask, 33554432
  %. = select i1 %7, i32 5, i32 1
  br label %50

8:                                                ; preds = %4
  %9 = icmp eq i32 %1, 0
  br i1 %9, label %10, label %20

10:                                               ; preds = %8
  %11 = getelementptr inbounds nuw i8, ptr %0, i64 48
  %12 = load i32, ptr %11, align 8, !tbaa !127
  %13 = and i32 %12, 2
  %.not37 = icmp eq i32 %13, 0
  br i1 %.not37, label %19, label %14

14:                                               ; preds = %10
  %15 = getelementptr inbounds nuw i8, ptr %0, i64 80
  %16 = load ptr, ptr %15, align 8, !tbaa !136
  %17 = getelementptr inbounds nuw i8, ptr %16, i64 240
  %18 = load i8, ptr %17, align 8, !tbaa !154
  %.not38 = icmp eq i8 %18, 0
  br i1 %.not38, label %19, label %50

19:                                               ; preds = %14, %10
  br label %50

20:                                               ; preds = %8
  %21 = getelementptr inbounds nuw i8, ptr %0, i64 144
  %22 = load i32, ptr %21, align 8, !tbaa !109
  switch i32 %22, label %33 [
    i32 7, label %50
    i32 8, label %.fold.split
    i32 3, label %23
  ]

23:                                               ; preds = %20
  %24 = getelementptr inbounds nuw i8, ptr %0, i64 16
  %25 = load ptr, ptr %24, align 8, !tbaa !118
  %26 = tail call i32 @BIO_should_read(ptr noundef %25) #21
  %.not31 = icmp eq i32 %26, 0
  br i1 %.not31, label %27, label %50

27:                                               ; preds = %23
  %28 = tail call i32 @BIO_should_write(ptr noundef %25) #21
  %.not32 = icmp eq i32 %28, 0
  br i1 %.not32, label %29, label %50

29:                                               ; preds = %27
  %30 = tail call i32 @BIO_should_io_special(ptr noundef %25) #21
  %.not33 = icmp eq i32 %30, 0
  br i1 %.not33, label %._crit_edge, label %31

._crit_edge:                                      ; preds = %29
  %.pre = load i32, ptr %21, align 8, !tbaa !109
  br label %33

31:                                               ; preds = %29
  %32 = tail call i32 @BIO_get_retry_reason(ptr noundef %25) #21
  %switch.selectcmp = icmp eq i32 %32, 3
  %switch.select = select i1 %switch.selectcmp, i32 8, i32 5
  %switch.selectcmp40 = icmp eq i32 %32, 2
  %switch.select41 = select i1 %switch.selectcmp40, i32 7, i32 %switch.select
  br label %50

33:                                               ; preds = %._crit_edge, %20
  %34 = phi i32 [ %.pre, %._crit_edge ], [ %22, %20 ]
  %35 = icmp eq i32 %34, 2
  br i1 %35, label %36, label %46

36:                                               ; preds = %33
  %37 = getelementptr inbounds nuw i8, ptr %0, i64 24
  %38 = load ptr, ptr %37, align 8, !tbaa !117
  %39 = tail call i32 @BIO_should_write(ptr noundef %38) #21
  %.not34 = icmp eq i32 %39, 0
  br i1 %.not34, label %40, label %50

40:                                               ; preds = %36
  %41 = tail call i32 @BIO_should_read(ptr noundef %38) #21
  %.not35 = icmp eq i32 %41, 0
  br i1 %.not35, label %42, label %50

42:                                               ; preds = %40
  %43 = tail call i32 @BIO_should_io_special(ptr noundef %38) #21
  %.not36 = icmp eq i32 %43, 0
  br i1 %.not36, label %thread-pre-split, label %44

44:                                               ; preds = %42
  %45 = tail call i32 @BIO_get_retry_reason(ptr noundef %38) #21
  %switch.selectcmp42 = icmp eq i32 %45, 3
  %switch.select43 = select i1 %switch.selectcmp42, i32 8, i32 5
  %switch.selectcmp44 = icmp eq i32 %45, 2
  %switch.select45 = select i1 %switch.selectcmp44, i32 7, i32 %switch.select43
  br label %50

thread-pre-split:                                 ; preds = %42
  %.pr = load i32, ptr %21, align 8, !tbaa !109
  br label %46

46:                                               ; preds = %thread-pre-split, %33
  %47 = phi i32 [ %.pr, %thread-pre-split ], [ %34, %33 ]
  switch i32 %47, label %48 [
    i32 4, label %50
    i32 5, label %.fold.split46
  ]

48:                                               ; preds = %46
  %49 = icmp eq i32 %47, 9
  %.39 = select i1 %49, i32 13, i32 5
  br label %50

.fold.split:                                      ; preds = %20
  br label %50

.fold.split46:                                    ; preds = %46
  br label %50

50:                                               ; preds = %46, %.fold.split46, %20, %.fold.split, %44, %31, %48, %40, %36, %27, %23, %14, %6, %2, %19
  %.0 = phi i32 [ 5, %19 ], [ 0, %2 ], [ %., %6 ], [ 6, %14 ], [ 11, %20 ], [ 2, %23 ], [ 3, %27 ], [ 3, %36 ], [ 2, %40 ], [ %47, %46 ], [ %.39, %48 ], [ %switch.select41, %31 ], [ %switch.select45, %44 ], [ 12, %.fold.split ], [ 9, %.fold.split46 ]
  ret i32 %.0
}